target datalayout = "e-m:e-p270:32:32-p271:32:32-p272:64:64-i64:64-i128:128-f80:128-n8:16:32:64-S128"
target triple = "x86_64-pc-linux-gnu"

%class.factor_rewriter = type { ptr, %class.arith_util, %class.obj_map, %class.vector, %class.vector.0, %class.ref_vector }
%class.arith_util = type { ptr, ptr }
%class.obj_map = type { %class.core_hashtable }
%class.core_hashtable = type <{ ptr, i32, i32, i32, [4 x i8] }>
%class.vector = type { ptr }
%class.vector.0 = type { ptr }
%class.ref_vector = type { %class.ref_vector_core }
%class.ref_vector_core = type { %class.ref_manager_wrapper, %class.ptr_vector }
%class.ref_manager_wrapper = type { ptr }
%class.ptr_vector = type { %class.vector.1 }
%class.vector.1 = type { ptr }
%class.decl = type { %class.ast, %class.symbol, ptr }
%class.ast = type { i32, i32, i32, i32 }
%class.symbol = type { ptr }
%class.decl_info = type <{ i32, i32, %class.vector.50, i8, [7 x i8] }>
%class.vector.50 = type { ptr }

; Function Attrs: mustprogress nounwind uwtable
define linkonce_odr hidden noundef i32 @_ZNK9decl_info13get_decl_kindEv(ptr noundef nonnull align 8 dereferenceable(17) %0) #5 comdat align 2 {
  %2 = alloca ptr, align 8
  store ptr %0, ptr %2, align 8, !tbaa !296
  %3 = load ptr, ptr %2, align 8
  %4 = getelementptr inbounds nuw %class.decl_info, ptr %3, i32 0, i32 1
  %5 = load i32, ptr %4, align 4, !tbaa !301
  ret i32 %5
}

; Function Attrs: mustprogress nounwind uwtable
define linkonce_odr hidden noundef i32 @_ZNK9decl_info13get_family_idEv(ptr noundef nonnull align 8 dereferenceable(17) %0) #5 comdat align 2 {
  %2 = alloca ptr, align 8
  store ptr %0, ptr %2, align 8, !tbaa !296
  %3 = load ptr, ptr %2, align 8
  %4 = getelementptr inbounds nuw %class.decl_info, ptr %3, i32 0, i32 0
  %5 = load i32, ptr %4, align 8, !tbaa !297
  ret i32 %5
}

; Function Attrs: inlinehint mustprogress uwtable
define linkonce_odr hidden noundef zeroext i1 @_Z10is_decl_ofPK9func_declii(ptr noundef %0, i32 noundef %1, i32 noundef %2) #9 comdat {
  %4 = alloca ptr, align 8
  %5 = alloca i32, align 4
  %6 = alloca i32, align 4
  store ptr %0, ptr %4, align 8, !tbaa !24
  store i32 %1, ptr %5, align 4, !tbaa !26
  store i32 %2, ptr %6, align 4, !tbaa !26
  %7 = load ptr, ptr %4, align 8, !tbaa !24
  %8 = call noundef i32 @_ZNK4decl13get_family_idEv(ptr noundef nonnull align 8 dereferenceable(32) %7)
  %9 = load i32, ptr %5, align 4, !tbaa !26
  %10 = icmp eq i32 %8, %9
  br i1 %10, label %11, label %16

11:                                               ; preds = %3
  %12 = load ptr, ptr %4, align 8, !tbaa !24
  %13 = call noundef i32 @_ZNK4decl13get_decl_kindEv(ptr noundef nonnull align 8 dereferenceable(32) %12)
  %14 = load i32, ptr %6, align 4, !tbaa !26
  %15 = icmp eq i32 %13, %14
  br label %16

16:                                               ; preds = %11, %3
  %17 = phi i1 [ false, %3 ], [ %15, %11 ]
  ret i1 %17
}

; Function Attrs: mustprogress uwtable
define linkonce_odr hidden noundef i32 @_ZN15factor_rewriter5mk_gtEP4exprS1_R7obj_refIS0_11ast_managerE(ptr noundef nonnull align 8 dereferenceable(80) %0, ptr noundef %1, ptr noundef %2, ptr noundef nonnull align 8 dereferenceable(16) %3) #4 comdat align 2 {
  %5 = alloca ptr, align 8
  %6 = alloca ptr, align 8
  %7 = alloca ptr, align 8
  %8 = alloca ptr, align 8
  store ptr %0, ptr %5, align 8, !tbaa !3
  store ptr %1, ptr %6, align 8, !tbaa !33
  store ptr %2, ptr %7, align 8, !tbaa !33
  store ptr %3, ptr %8, align 8, !tbaa !31
  %9 = load ptr, ptr %5, align 8
  %10 = load ptr, ptr %7, align 8, !tbaa !33
  %11 = load ptr, ptr %6, align 8, !tbaa !33
  %12 = load ptr, ptr %8, align 8, !tbaa !31
  %13 = call noundef i32 @_ZN15factor_rewriter5mk_ltEP4exprS1_R7obj_refIS0_11ast_managerE(ptr noundef nonnull align 8 dereferenceable(80) %9, ptr noundef %10, ptr noundef %11, ptr noundef nonnull align 8 dereferenceable(16) %12)
  ret i32 %13
}

; Function Attrs: mustprogress uwtable
define linkonce_odr hidden noundef i32 @_ZN15factor_rewriter5mk_geEP4exprS1_R7obj_refIS0_11ast_managerE(ptr noundef nonnull align 8 dereferenceable(80) %0, ptr noundef %1, ptr noundef %2, ptr noundef nonnull align 8 dereferenceable(16) %3) #4 comdat align 2 {
  %5 = alloca ptr, align 8
  %6 = alloca ptr, align 8
  %7 = alloca ptr, align 8
  %8 = alloca ptr, align 8
  store ptr %0, ptr %5, align 8, !tbaa !3
  store ptr %1, ptr %6, align 8, !tbaa !33
  store ptr %2, ptr %7, align 8, !tbaa !33
  store ptr %3, ptr %8, align 8, !tbaa !31
  %9 = load ptr, ptr %5, align 8
  %10 = load ptr, ptr %7, align 8, !tbaa !33
  %11 = load ptr, ptr %6, align 8, !tbaa !33
  %12 = load ptr, ptr %8, align 8, !tbaa !31
  %13 = call noundef i32 @_ZN15factor_rewriter5mk_leEP4exprS1_R7obj_refIS0_11ast_managerE(ptr noundef nonnull align 8 dereferenceable(80) %9, ptr noundef %10, ptr noundef %11, ptr noundef nonnull align 8 dereferenceable(16) %12)
  ret i32 %13
}

; Function Attrs: mustprogress uwtable
define linkonce_odr hidden noundef i32 @_ZNK4decl13get_decl_kindEv(ptr noundef nonnull align 8 dereferenceable(32) %0) #4 comdat align 2 {
  %2 = alloca ptr, align 8
  store ptr %0, ptr %2, align 8, !tbaa !51
  %3 = load ptr, ptr %2, align 8
  %4 = getelementptr inbounds nuw %class.decl, ptr %3, i32 0, i32 2
  %5 = load ptr, ptr %4, align 8, !tbaa !53
  %6 = icmp eq ptr %5, null
  br i1 %6, label %7, label %8

7:                                                ; preds = %1
  br label %12

8:                                                ; preds = %1
  %9 = getelementptr inbounds nuw %class.decl, ptr %3, i32 0, i32 2
  %10 = load ptr, ptr %9, align 8, !tbaa !53
  %11 = call noundef i32 @_ZNK9decl_info13get_decl_kindEv(ptr noundef nonnull align 8 dereferenceable(17) %10)
  br label %12

12:                                               ; preds = %8, %7
  %13 = phi i32 [ -1, %7 ], [ %11, %8 ]
  ret i32 %13
}

; Function Attrs: mustprogress nounwind uwtable
define linkonce_odr hidden noundef i32 @_ZNK17arith_recognizers13get_family_idEv(ptr noundef nonnull align 1 dereferenceable(1) %0) #5 comdat align 2 {
  %2 = alloca ptr, align 8
  store ptr %0, ptr %2, align 8, !tbaa !59
  ret i32 5
}

; Function Attrs: mustprogress nounwind uwtable
define linkonce_odr hidden noundef nonnull align 8 dereferenceable(16) ptr @_ZN15factor_rewriter1aEv(ptr noundef nonnull align 8 dereferenceable(80) %0) #5 comdat align 2 {
  %2 = alloca ptr, align 8
  store ptr %0, ptr %2, align 8, !tbaa !3
  %3 = load ptr, ptr %2, align 8
  %4 = getelementptr inbounds nuw %class.factor_rewriter, ptr %3, i32 0, i32 1
  ret ptr %4
}

; Function Attrs: mustprogress uwtable
define linkonce_odr hidden noundef i32 @_ZNK4decl13get_family_idEv(ptr noundef nonnull align 8 dereferenceable(32) %0) #4 comdat align 2 {
  %2 = alloca ptr, align 8
  store ptr %0, ptr %2, align 8, !tbaa !51
  %3 = load ptr, ptr %2, align 8
  %4 = getelementptr inbounds nuw %class.decl, ptr %3, i32 0, i32 2
  %5 = load ptr, ptr %4, align 8, !tbaa !53
  %6 = icmp eq ptr %5, null
  br i1 %6, label %7, label %8

7:                                                ; preds = %1
  br label %12

8:                                                ; preds = %1
  %9 = getelementptr inbounds nuw %class.decl, ptr %3, i32 0, i32 2
  %10 = load ptr, ptr %9, align 8, !tbaa !53
  %11 = call noundef i32 @_ZNK9decl_info13get_family_idEv(ptr noundef nonnull align 8 dereferenceable(17) %10)
  br label %12

12:                                               ; preds = %8, %7
  %13 = phi i32 [ -1, %7 ], [ %11, %8 ]
  ret i32 %13
}

; Function Attrs: mustprogress uwtable
define linkonce_odr hidden noundef zeroext i1 @_ZNK11ast_manager5is_eqEPK9func_decl(ptr noundef nonnull align 8 dereferenceable(976) %0, ptr noundef %1) #4 comdat align 2 {
  %3 = alloca ptr, align 8
  %4 = alloca ptr, align 8
  store ptr %0, ptr %3, align 8, !tbaa !8
  store ptr %1, ptr %4, align 8, !tbaa !24
  %5 = load ptr, ptr %4, align 8, !tbaa !24
  %6 = call noundef zeroext i1 @_Z10is_decl_ofPK9func_declii(ptr noundef %5, i32 noundef 0, i32 noundef 2)
  ret i1 %6
}

; Function Attrs: mustprogress nounwind uwtable
define linkonce_odr hidden noundef nonnull align 8 dereferenceable(976) ptr @_ZNK15factor_rewriter1mEv(ptr noundef nonnull align 8 dereferenceable(80) %0) #5 comdat align 2 {
  %2 = alloca ptr, align 8
  store ptr %0, ptr %2, align 8, !tbaa !3
  %3 = load ptr, ptr %2, align 8
  %4 = getelementptr inbounds nuw %class.factor_rewriter, ptr %3, i32 0, i32 0
  %5 = load ptr, ptr %4, align 8, !tbaa !35
  ret ptr %5
}

; Function Attrs: mustprogress uwtable
define hidden noundef i32 @_ZN15factor_rewriter11mk_app_coreEP9func_decljPKP4exprR7obj_refIS2_11ast_managerE(ptr noundef nonnull align 8 dereferenceable(80) %0, ptr noundef %1, i32 noundef %2, ptr noundef %3, ptr noundef nonnull align 8 dereferenceable(16) %4) #4 align 2 {
  %6 = alloca i32, align 4
  %7 = alloca ptr, align 8
  %8 = alloca ptr, align 8
  %9 = alloca i32, align 4
  %10 = alloca ptr, align 8
  %11 = alloca ptr, align 8
  store ptr %0, ptr %7, align 8, !tbaa !3
  store ptr %1, ptr %8, align 8, !tbaa !24
  store i32 %2, ptr %9, align 4, !tbaa !26
  store ptr %3, ptr %10, align 8, !tbaa !28
  store ptr %4, ptr %11, align 8, !tbaa !31
  %12 = load ptr, ptr %7, align 8
  %13 = call noundef nonnull align 8 dereferenceable(976) ptr @_ZNK15factor_rewriter1mEv(ptr noundef nonnull align 8 dereferenceable(80) %12)
  %14 = load ptr, ptr %8, align 8, !tbaa !24
  %15 = call noundef zeroext i1 @_ZNK11ast_manager5is_eqEPK9func_decl(ptr noundef nonnull align 8 dereferenceable(976) %13, ptr noundef %14)
  br i1 %15, label %16, label %25

16:                                               ; preds = %5
  %17 = load ptr, ptr %10, align 8, !tbaa !28
  %18 = getelementptr inbounds ptr, ptr %17, i64 0
  %19 = load ptr, ptr %18, align 8, !tbaa !33
  %20 = load ptr, ptr %10, align 8, !tbaa !28
  %21 = getelementptr inbounds ptr, ptr %20, i64 1
  %22 = load ptr, ptr %21, align 8, !tbaa !33
  %23 = load ptr, ptr %11, align 8, !tbaa !31
  %24 = call noundef i32 @_ZN15factor_rewriter5mk_eqEP4exprS1_R7obj_refIS0_11ast_managerE(ptr noundef nonnull align 8 dereferenceable(80) %12, ptr noundef %19, ptr noundef %22, ptr noundef nonnull align 8 dereferenceable(16) %23)
  store i32 %24, ptr %6, align 4
  br label %72

25:                                               ; preds = %5
  %26 = load ptr, ptr %8, align 8, !tbaa !24
  %27 = call noundef i32 @_ZNK4decl13get_family_idEv(ptr noundef nonnull align 8 dereferenceable(32) %26)
  %28 = call noundef nonnull align 8 dereferenceable(16) ptr @_ZN15factor_rewriter1aEv(ptr noundef nonnull align 8 dereferenceable(80) %12)
  %29 = call noundef i32 @_ZNK17arith_recognizers13get_family_idEv(ptr noundef nonnull align 1 dereferenceable(1) %28)
  %30 = icmp eq i32 %27, %29
  br i1 %30, label %31, label %71

31:                                               ; preds = %25
  %32 = load ptr, ptr %8, align 8, !tbaa !24
  %33 = call noundef i32 @_ZNK4decl13get_decl_kindEv(ptr noundef nonnull align 8 dereferenceable(32) %32)
  switch i32 %33, label %70 [
    i32 2, label %34
    i32 3, label %43
    i32 4, label %52
    i32 5, label %61
  ]

34:                                               ; preds = %31
  %35 = load ptr, ptr %10, align 8, !tbaa !28
  %36 = getelementptr inbounds ptr, ptr %35, i64 0
  %37 = load ptr, ptr %36, align 8, !tbaa !33
  %38 = load ptr, ptr %10, align 8, !tbaa !28
  %39 = getelementptr inbounds ptr, ptr %38, i64 1
  %40 = load ptr, ptr %39, align 8, !tbaa !33
  %41 = load ptr, ptr %11, align 8, !tbaa !31
  %42 = call noundef i32 @_ZN15factor_rewriter5mk_leEP4exprS1_R7obj_refIS0_11ast_managerE(ptr noundef nonnull align 8 dereferenceable(80) %12, ptr noundef %37, ptr noundef %40, ptr noundef nonnull align 8 dereferenceable(16) %41)
  store i32 %42, ptr %6, align 4
  br label %72

43:                                               ; preds = %31
  %44 = load ptr, ptr %10, align 8, !tbaa !28
  %45 = getelementptr inbounds ptr, ptr %44, i64 0
  %46 = load ptr, ptr %45, align 8, !tbaa !33
  %47 = load ptr, ptr %10, align 8, !tbaa !28
  %48 = getelementptr inbounds ptr, ptr %47, i64 1
  %49 = load ptr, ptr %48, align 8, !tbaa !33
  %50 = load ptr, ptr %11, align 8, !tbaa !31
  %51 = call noundef i32 @_ZN15factor_rewriter5mk_geEP4exprS1_R7obj_refIS0_11ast_managerE(ptr noundef nonnull align 8 dereferenceable(80) %12, ptr noundef %46, ptr noundef %49, ptr noundef nonnull align 8 dereferenceable(16) %50)
  store i32 %51, ptr %6, align 4
  br label %72

52:                                               ; preds = %31
  %53 = load ptr, ptr %10, align 8, !tbaa !28
  %54 = getelementptr inbounds ptr, ptr %53, i64 0
  %55 = load ptr, ptr %54, align 8, !tbaa !33
  %56 = load ptr, ptr %10, align 8, !tbaa !28
  %57 = getelementptr inbounds ptr, ptr %56, i64 1
  %58 = load ptr, ptr %57, align 8, !tbaa !33
  %59 = load ptr, ptr %11, align 8, !tbaa !31
  %60 = call noundef i32 @_ZN15factor_rewriter5mk_ltEP4exprS1_R7obj_refIS0_11ast_managerE(ptr noundef nonnull align 8 dereferenceable(80) %12, ptr noundef %55, ptr noundef %58, ptr noundef nonnull align 8 dereferenceable(16) %59)
  store i32 %60, ptr %6, align 4
  br label %72

61:                                               ; preds = %31
  %62 = load ptr, ptr %10, align 8, !tbaa !28
  %63 = getelementptr inbounds ptr, ptr %62, i64 0
  %64 = load ptr, ptr %63, align 8, !tbaa !33
  %65 = load ptr, ptr %10, align 8, !tbaa !28
  %66 = getelementptr inbounds ptr, ptr %65, i64 1
  %67 = load ptr, ptr %66, align 8, !tbaa !33
  %68 = load ptr, ptr %11, align 8, !tbaa !31
  %69 = call noundef i32 @_ZN15factor_rewriter5mk_gtEP4exprS1_R7obj_refIS0_11ast_managerE(ptr noundef nonnull align 8 dereferenceable(80) %12, ptr noundef %64, ptr noundef %67, ptr noundef nonnull align 8 dereferenceable(16) %68)
  store i32 %69, ptr %6, align 4
  br label %72

70:                                               ; preds = %31
  store i32 5, ptr %6, align 4
  br label %72

71:                                               ; preds = %25
  store i32 5, ptr %6, align 4
  br label %72

72:                                               ; preds = %71, %70, %61, %52, %43, %34, %16
  %73 = load i32, ptr %6, align 4
  ret i32 %73
}