; Function Attrs: mustprogress uwtable
define hidden noundef range(i32 4, 6) i32 @_ZN15factor_rewriter11mk_app_coreEP9func_decljPKP4exprR7obj_refIS2_11ast_managerE(ptr noundef nonnull align 8 dereferenceable(80) %0, ptr noundef readonly captures(none) %1, i32 %2, ptr noundef readonly captures(none) %3, ptr noundef nonnull align 8 captures(none) dereferenceable(16) %4) local_unnamed_addr #3 align 2 {
  %6 = getelementptr inbounds nuw i8, ptr %1, i64 24
  %7 = load ptr, ptr %6, align 8, !tbaa !25
  %8 = icmp eq ptr %7, null
  br i1 %8, label %_ZNK4decl13get_family_idEv.exit.thread, label %_ZNK4decl13get_family_idEv.exit.thread.i.i

_ZNK4decl13get_family_idEv.exit.thread.i.i:       ; preds = %5
  %9 = load i32, ptr %7, align 8, !tbaa !31
  switch i32 %9, label %_ZNK4decl13get_family_idEv.exit.thread [
    i32 0, label %_ZNK11ast_manager5is_eqEPK9func_decl.exit
    i32 5, label %_ZNK4decl13get_decl_kindEv.exit
  ]

_ZNK11ast_manager5is_eqEPK9func_decl.exit:        ; preds = %_ZNK4decl13get_family_idEv.exit.thread.i.i
  %10 = getelementptr inbounds nuw i8, ptr %7, i64 4
  %11 = load i32, ptr %10, align 4, !tbaa !36
  %12 = icmp eq i32 %11, 2
  br i1 %12, label %13, label %_ZNK4decl13get_family_idEv.exit.thread

13:                                               ; preds = %_ZNK11ast_manager5is_eqEPK9func_decl.exit
  %14 = load ptr, ptr %3, align 8, !tbaa !37
  %15 = getelementptr inbounds nuw i8, ptr %3, i64 8
  %16 = load ptr, ptr %15, align 8, !tbaa !37
  %17 = tail call noundef i32 @_ZN15factor_rewriter5mk_eqEP4exprS1_R7obj_refIS0_11ast_managerE(ptr noundef nonnull align 8 dereferenceable(80) %0, ptr noundef %14, ptr noundef %16, ptr noundef nonnull align 8 dereferenceable(16) %4)
  br label %_ZNK4decl13get_family_idEv.exit.thread

_ZNK4decl13get_decl_kindEv.exit:                  ; preds = %_ZNK4decl13get_family_idEv.exit.thread.i.i
  %18 = getelementptr inbounds nuw i8, ptr %7, i64 4
  %19 = load i32, ptr %18, align 4, !tbaa !36
  switch i32 %19, label %_ZNK4decl13get_family_idEv.exit.thread [
    i32 2, label %20
    i32 3, label %25
    i32 4, label %30
    i32 5, label %35
  ]

20:                                               ; preds = %_ZNK4decl13get_decl_kindEv.exit
  %21 = load ptr, ptr %3, align 8, !tbaa !37
  %22 = getelementptr inbounds nuw i8, ptr %3, i64 8
  %23 = load ptr, ptr %22, align 8, !tbaa !37
  %24 = tail call noundef i32 @_ZN15factor_rewriter5mk_leEP4exprS1_R7obj_refIS0_11ast_managerE(ptr noundef nonnull align 8 dereferenceable(80) %0, ptr noundef %21, ptr noundef %23, ptr noundef nonnull align 8 dereferenceable(16) %4)
  br label %_ZNK4decl13get_family_idEv.exit.thread

25:                                               ; preds = %_ZNK4decl13get_decl_kindEv.exit
  %26 = load ptr, ptr %3, align 8, !tbaa !37
  %27 = getelementptr inbounds nuw i8, ptr %3, i64 8
  %28 = load ptr, ptr %27, align 8, !tbaa !37
  %29 = tail call noundef i32 @_ZN15factor_rewriter5mk_leEP4exprS1_R7obj_refIS0_11ast_managerE(ptr noundef nonnull align 8 dereferenceable(80) %0, ptr noundef %28, ptr noundef %26, ptr noundef nonnull align 8 dereferenceable(16) %4)
  br label %_ZNK4decl13get_family_idEv.exit.thread

30:                                               ; preds = %_ZNK4decl13get_decl_kindEv.exit
  %31 = load ptr, ptr %3, align 8, !tbaa !37
  %32 = getelementptr inbounds nuw i8, ptr %3, i64 8
  %33 = load ptr, ptr %32, align 8, !tbaa !37
  %34 = tail call noundef i32 @_ZN15factor_rewriter5mk_ltEP4exprS1_R7obj_refIS0_11ast_managerE(ptr noundef nonnull align 8 dereferenceable(80) %0, ptr noundef %31, ptr noundef %33, ptr noundef nonnull align 8 dereferenceable(16) %4)
  br label %_ZNK4decl13get_family_idEv.exit.thread

35:                                               ; preds = %_ZNK4decl13get_decl_kindEv.exit
  %36 = load ptr, ptr %3, align 8, !tbaa !37
  %37 = getelementptr inbounds nuw i8, ptr %3, i64 8
  %38 = load ptr, ptr %37, align 8, !tbaa !37
  %39 = tail call noundef i32 @_ZN15factor_rewriter5mk_ltEP4exprS1_R7obj_refIS0_11ast_managerE(ptr noundef nonnull align 8 dereferenceable(80) %0, ptr noundef %38, ptr noundef %36, ptr noundef nonnull align 8 dereferenceable(16) %4)
  br label %_ZNK4decl13get_family_idEv.exit.thread

_ZNK4decl13get_family_idEv.exit.thread:           ; preds = %_ZNK4decl13get_family_idEv.exit.thread.i.i, %_ZNK11ast_manager5is_eqEPK9func_decl.exit, %5, %_ZNK4decl13get_decl_kindEv.exit, %35, %30, %25, %20, %13
  %.0 = phi i32 [ %17, %13 ], [ %39, %35 ], [ %34, %30 ], [ %29, %25 ], [ %24, %20 ], [ 5, %_ZNK4decl13get_decl_kindEv.exit ], [ 5, %5 ], [ 5, %_ZNK11ast_manager5is_eqEPK9func_decl.exit ], [ 5, %_ZNK4decl13get_family_idEv.exit.thread.i.i ]
  ret i32 %.0
}